; ModuleID = '57/2383.c'
source_filename = "57/2383.c"
target datalayout = "e-m:e-p270:32:32-p271:32:32-p272:64:64-i64:64-f80:128-n8:16:32:64-S128"
target triple = "x86_64-pc-linux-gnu"

@.str = private unnamed_addr constant [4 x i8] c"%d\0A\00", align 1
@.str.1 = private unnamed_addr constant [4 x i8] c"%s\0A\00", align 1

; Function Attrs: noinline nounwind uwtable
define dso_local void @main() #0 {
  %1 = alloca i32, align 4
  %2 = alloca i32, align 4
  %3 = alloca [88 x [88 x i8]], align 16
  %4 = alloca [88 x [88 x i8]], align 16
  %5 = alloca [88 x i32], align 16
  %6 = bitcast [88 x [88 x i8]]* %4 to i8*
  call void @llvm.memset.p0i8.i64(i8* align 16 %6, i8 0, i64 7744, i1 false)
  %7 = bitcast i8* %6 to <{ <{ i8, [87 x i8] }>, [87 x <{ i8, [87 x i8] }>] }>*
  %8 = getelementptr inbounds <{ <{ i8, [87 x i8] }>, [87 x <{ i8, [87 x i8] }>] }>, <{ <{ i8, [87 x i8] }>, [87 x <{ i8, [87 x i8] }>] }>* %7, i32 0, i32 0
  %9 = getelementptr inbounds <{ i8, [87 x i8] }>, <{ i8, [87 x i8] }>* %8, i32 0, i32 0
  store i8 97, i8* %9, align 16
  %10 = call i32 (i8*, ...) @__isoc99_scanf(i8* getelementptr inbounds ([4 x i8], [4 x i8]* @.str, i64 0, i64 0), i32* %1)
  store i32 0, i32* %2, align 4
  br label %11

11:                                               ; preds = %120, %0
  %12 = load i32, i32* %2, align 4
  %13 = load i32, i32* %1, align 4
  %14 = icmp slt i32 %12, %13
  br i1 %14, label %15, label %123

15:                                               ; preds = %11
  %16 = load i32, i32* %2, align 4
  %17 = sext i32 %16 to i64
  %18 = getelementptr inbounds [88 x [88 x i8]], [88 x [88 x i8]]* %3, i64 0, i64 %17
  %19 = getelementptr inbounds [88 x i8], [88 x i8]* %18, i64 0, i64 0
  %20 = call i32 (i8*, ...) bitcast (i32 (...)* @gets to i32 (i8*, ...)*)(i8* %19)
  %21 = load i32, i32* %2, align 4
  %22 = sext i32 %21 to i64
  %23 = getelementptr inbounds [88 x [88 x i8]], [88 x [88 x i8]]* %3, i64 0, i64 %22
  %24 = getelementptr inbounds [88 x i8], [88 x i8]* %23, i64 0, i64 0
  %25 = call i64 @strlen(i8* %24) #5
  %26 = trunc i64 %25 to i32
  %27 = load i32, i32* %2, align 4
  %28 = sext i32 %27 to i64
  %29 = getelementptr inbounds [88 x i32], [88 x i32]* %5, i64 0, i64 %28
  store i32 %26, i32* %29, align 4
  %30 = load i32, i32* %2, align 4
  %31 = sext i32 %30 to i64
  %32 = getelementptr inbounds [88 x [88 x i8]], [88 x [88 x i8]]* %3, i64 0, i64 %31
  %33 = load i32, i32* %2, align 4
  %34 = sext i32 %33 to i64
  %35 = getelementptr inbounds [88 x i32], [88 x i32]* %5, i64 0, i64 %34
  %36 = load i32, i32* %35, align 4
  %37 = sub nsw i32 %36, 1
  %38 = sext i32 %37 to i64
  %39 = getelementptr inbounds [88 x i8], [88 x i8]* %32, i64 0, i64 %38
  %40 = load i8, i8* %39, align 1
  %41 = sext i8 %40 to i32
  %42 = icmp eq i32 %41, 114
  br i1 %42, label %43, label %59

43:                                               ; preds = %15
  %44 = load i32, i32* %2, align 4
  %45 = sext i32 %44 to i64
  %46 = getelementptr inbounds [88 x [88 x i8]], [88 x [88 x i8]]* %4, i64 0, i64 %45
  %47 = getelementptr inbounds [88 x i8], [88 x i8]* %46, i64 0, i64 0
  %48 = load i32, i32* %2, align 4
  %49 = sext i32 %48 to i64
  %50 = getelementptr inbounds [88 x [88 x i8]], [88 x [88 x i8]]* %3, i64 0, i64 %49
  %51 = getelementptr inbounds [88 x i8], [88 x i8]* %50, i64 0, i64 0
  %52 = load i32, i32* %2, align 4
  %53 = sext i32 %52 to i64
  %54 = getelementptr inbounds [88 x i32], [88 x i32]* %5, i64 0, i64 %53
  %55 = load i32, i32* %54, align 4
  %56 = sub nsw i32 %55, 2
  %57 = sext i32 %56 to i64
  %58 = call i8* @strncpy(i8* %47, i8* %51, i64 %57) #6
  br label %59

59:                                               ; preds = %43, %15
  %60 = load i32, i32* %2, align 4
  %61 = sext i32 %60 to i64
  %62 = getelementptr inbounds [88 x [88 x i8]], [88 x [88 x i8]]* %3, i64 0, i64 %61
  %63 = load i32, i32* %2, align 4
  %64 = sext i32 %63 to i64
  %65 = getelementptr inbounds [88 x i32], [88 x i32]* %5, i64 0, i64 %64
  %66 = load i32, i32* %65, align 4
  %67 = sub nsw i32 %66, 1
  %68 = sext i32 %67 to i64
  %69 = getelementptr inbounds [88 x i8], [88 x i8]* %62, i64 0, i64 %68
  %70 = load i8, i8* %69, align 1
  %71 = sext i8 %70 to i32
  %72 = icmp eq i32 %71, 103
  br i1 %72, label %73, label %89

73:                                               ; preds = %59
  %74 = load i32, i32* %2, align 4
  %75 = sext i32 %74 to i64
  %76 = getelementptr inbounds [88 x [88 x i8]], [88 x [88 x i8]]* %4, i64 0, i64 %75
  %77 = getelementptr inbounds [88 x i8], [88 x i8]* %76, i64 0, i64 0
  %78 = load i32, i32* %2, align 4
  %79 = sext i32 %78 to i64
  %80 = getelementptr inbounds [88 x [88 x i8]], [88 x [88 x i8]]* %3, i64 0, i64 %79
  %81 = getelementptr inbounds [88 x i8], [88 x i8]* %80, i64 0, i64 0
  %82 = load i32, i32* %2, align 4
  %83 = sext i32 %82 to i64
  %84 = getelementptr inbounds [88 x i32], [88 x i32]* %5, i64 0, i64 %83
  %85 = load i32, i32* %84, align 4
  %86 = sub nsw i32 %85, 3
  %87 = sext i32 %86 to i64
  %88 = call i8* @strncpy(i8* %77, i8* %81, i64 %87) #6
  br label %89

89:                                               ; preds = %73, %59
  %90 = load i32, i32* %2, align 4
  %91 = sext i32 %90 to i64
  %92 = getelementptr inbounds [88 x [88 x i8]], [88 x [88 x i8]]* %3, i64 0, i64 %91
  %93 = load i32, i32* %2, align 4
  %94 = sext i32 %93 to i64
  %95 = getelementptr inbounds [88 x i32], [88 x i32]* %5, i64 0, i64 %94
  %96 = load i32, i32* %95, align 4
  %97 = sub nsw i32 %96, 1
  %98 = sext i32 %97 to i64
  %99 = getelementptr inbounds [88 x i8], [88 x i8]* %92, i64 0, i64 %98
  %100 = load i8, i8* %99, align 1
  %101 = sext i8 %100 to i32
  %102 = icmp eq i32 %101, 121
  br i1 %102, label %103, label %119

103:                                              ; preds = %89
  %104 = load i32, i32* %2, align 4
  %105 = sext i32 %104 to i64
  %106 = getelementptr inbounds [88 x [88 x i8]], [88 x [88 x i8]]* %4, i64 0, i64 %105
  %107 = getelementptr inbounds [88 x i8], [88 x i8]* %106, i64 0, i64 0
  %108 = load i32, i32* %2, align 4
  %109 = sext i32 %108 to i64
  %110 = getelementptr inbounds [88 x [88 x i8]], [88 x [88 x i8]]* %3, i64 0, i64 %109
  %111 = getelementptr inbounds [88 x i8], [88 x i8]* %110, i64 0, i64 0
  %112 = load i32, i32* %2, align 4
  %113 = sext i32 %112 to i64
  %114 = getelementptr inbounds [88 x i32], [88 x i32]* %5, i64 0, i64 %113
  %115 = load i32, i32* %114, align 4
  %116 = sub nsw i32 %115, 2
  %117 = sext i32 %116 to i64
  %118 = call i8* @strncpy(i8* %107, i8* %111, i64 %117) #6
  br label %119

119:                                              ; preds = %103, %89
  br label %120

120:                                              ; preds = %119
  %121 = load i32, i32* %2, align 4
  %122 = add nsw i32 %121, 1
  store i32 %122, i32* %2, align 4
  br label %11

123:                                              ; preds = %11
  store i32 0, i32* %2, align 4
  br label %124

124:                                              ; preds = %134, %123
  %125 = load i32, i32* %2, align 4
  %126 = load i32, i32* %1, align 4
  %127 = icmp slt i32 %125, %126
  br i1 %127, label %128, label %137

128:                                              ; preds = %124
  %129 = load i32, i32* %2, align 4
  %130 = sext i32 %129 to i64
  %131 = getelementptr inbounds [88 x [88 x i8]], [88 x [88 x i8]]* %4, i64 0, i64 %130
  %132 = getelementptr inbounds [88 x i8], [88 x i8]* %131, i64 0, i64 0
  %133 = call i32 (i8*, ...) @printf(i8* getelementptr inbounds ([4 x i8], [4 x i8]* @.str.1, i64 0, i64 0), i8* %132)
  br label %134

134:                                              ; preds = %128
  %135 = load i32, i32* %2, align 4
  %136 = add nsw i32 %135, 1
  store i32 %136, i32* %2, align 4
  br label %124

137:                                              ; preds = %124
  ret void
}

; Function Attrs: argmemonly nounwind willreturn
declare void @llvm.memset.p0i8.i64(i8* nocapture writeonly, i8, i64, i1 immarg) #1

declare dso_local i32 @__isoc99_scanf(i8*, ...) #2

declare dso_local i32 @gets(...) #2

; Function Attrs: nounwind readonly
declare dso_local i64 @strlen(i8*) #3

; Function Attrs: nounwind
declare dso_local i8* @strncpy(i8*, i8*, i64) #4

declare dso_local i32 @printf(i8*, ...) #2


!llvm.module.flags = !{!0}
!llvm.ident = !{!1}

!0 = !{i32 1, !"wchar_size", i32 4}
!1 = !{!"clang version 10.0.0-4ubuntu1 "}
