; ModuleID = 'source-C-CXX/56/2383.c'
source_filename = "source-C-CXX/56/2383.c"
target datalayout = "e-m:e-p270:32:32-p271:32:32-p272:64:64-i64:64-f80:128-n8:16:32:64-S128"
target triple = "x86_64-pc-linux-gnu"

@.str = private unnamed_addr constant [4 x i8] c"%d\0A\00", align 1

; Function Attrs: nounwind sspstrong uwtable
define dso_local void @main() local_unnamed_addr #0 {
  %1 = alloca i32, align 4
  %2 = alloca [88 x [88 x i8]], align 16
  %3 = alloca [88 x [88 x i8]], align 16
  %4 = bitcast i32* %1 to i8*
  call void @llvm.lifetime.start.p0i8(i64 4, i8* nonnull %4) #8
  %5 = getelementptr inbounds [88 x [88 x i8]], [88 x [88 x i8]]* %2, i64 0, i64 0, i64 0
  call void @llvm.lifetime.start.p0i8(i64 7744, i8* nonnull %5) #8
  %6 = getelementptr inbounds [88 x [88 x i8]], [88 x [88 x i8]]* %3, i64 0, i64 0, i64 0
  call void @llvm.lifetime.start.p0i8(i64 7744, i8* nonnull %6) #8
  call void @llvm.memset.p0i8.i64(i8* noundef nonnull align 16 dereferenceable(7744) %6, i8 0, i64 7744, i1 false)
  store i8 97, i8* %6, align 16
  %7 = call i32 (i8*, ...) @__isoc99_scanf(i8* getelementptr inbounds ([4 x i8], [4 x i8]* @.str, i64 0, i64 0), i32* nonnull %1)
  %8 = load i32, i32* %1, align 4, !tbaa !5
  %9 = icmp sgt i32 %8, 0
  br i1 %9, label %12, label %42

10:                                               ; preds = %29
  %11 = icmp sgt i32 %31, 0
  br i1 %11, label %34, label %42

12:                                               ; preds = %0, %29
  %13 = phi i64 [ %30, %29 ], [ 0, %0 ]
  %14 = getelementptr inbounds [88 x [88 x i8]], [88 x [88 x i8]]* %2, i64 0, i64 %13, i64 0
  %15 = call i32 (i8*, ...) bitcast (i32 (...)* @gets to i32 (i8*, ...)*)(i8* nonnull %14) #8
  %16 = call i64 @strlen(i8* noundef nonnull %14) #9
  %17 = shl i64 %16, 32
  %18 = add i64 %17, -4294967296
  %19 = ashr exact i64 %18, 32
  %20 = getelementptr inbounds [88 x [88 x i8]], [88 x [88 x i8]]* %2, i64 0, i64 %13, i64 %19
  %21 = load i8, i8* %20, align 1, !tbaa !9
  switch i8 %21, label %29 [
    i8 114, label %23
    i8 103, label %22
    i8 121, label %23
  ]

22:                                               ; preds = %12
  br label %23

23:                                               ; preds = %12, %12, %22
  %24 = phi i64 [ -12884901888, %22 ], [ -8589934592, %12 ], [ -8589934592, %12 ]
  %25 = getelementptr inbounds [88 x [88 x i8]], [88 x [88 x i8]]* %3, i64 0, i64 %13, i64 0
  %26 = add i64 %17, %24
  %27 = ashr exact i64 %26, 32
  %28 = call i8* @strncpy(i8* noundef nonnull %25, i8* nonnull %14, i64 %27) #8
  br label %29

29:                                               ; preds = %23, %12
  %30 = add nuw nsw i64 %13, 1
  %31 = load i32, i32* %1, align 4, !tbaa !5
  %32 = sext i32 %31 to i64
  %33 = icmp slt i64 %30, %32
  br i1 %33, label %12, label %10, !llvm.loop !10

34:                                               ; preds = %10, %34
  %35 = phi i64 [ %38, %34 ], [ 0, %10 ]
  %36 = getelementptr inbounds [88 x [88 x i8]], [88 x [88 x i8]]* %3, i64 0, i64 %35, i64 0
  %37 = call i32 @puts(i8* nonnull %36)
  %38 = add nuw nsw i64 %35, 1
  %39 = load i32, i32* %1, align 4, !tbaa !5
  %40 = sext i32 %39 to i64
  %41 = icmp slt i64 %38, %40
  br i1 %41, label %34, label %42, !llvm.loop !12

42:                                               ; preds = %34, %0, %10
  call void @llvm.lifetime.end.p0i8(i64 7744, i8* nonnull %6) #8
  call void @llvm.lifetime.end.p0i8(i64 7744, i8* nonnull %5) #8
  call void @llvm.lifetime.end.p0i8(i64 4, i8* nonnull %4) #8
  ret void
}

; Function Attrs: argmemonly mustprogress nofree nosync nounwind willreturn
declare void @llvm.lifetime.start.p0i8(i64 immarg, i8* nocapture) #1

; Function Attrs: argmemonly mustprogress nofree nounwind willreturn writeonly
declare void @llvm.memset.p0i8.i64(i8* nocapture writeonly, i8, i64, i1 immarg) #2

; Function Attrs: nofree nounwind
declare noundef i32 @__isoc99_scanf(i8* nocapture noundef readonly, ...) local_unnamed_addr #3

declare i32 @gets(...) local_unnamed_addr #4

; Function Attrs: argmemonly mustprogress nofree nounwind readonly willreturn
declare i64 @strlen(i8* nocapture) local_unnamed_addr #5

; Function Attrs: argmemonly mustprogress nofree nounwind willreturn
declare i8* @strncpy(i8* noalias returned writeonly, i8* noalias nocapture readonly, i64) local_unnamed_addr #6

; Function Attrs: argmemonly mustprogress nofree nosync nounwind willreturn
declare void @llvm.lifetime.end.p0i8(i64 immarg, i8* nocapture) #1

; Function Attrs: nofree nounwind
declare noundef i32 @puts(i8* nocapture noundef readonly) local_unnamed_addr #7


!llvm.module.flags = !{!0, !1, !2, !3}
!llvm.ident = !{!4}

!0 = !{i32 1, !"wchar_size", i32 4}
!1 = !{i32 7, !"PIC Level", i32 2}
!2 = !{i32 7, !"PIE Level", i32 2}
!3 = !{i32 7, !"uwtable", i32 1}
!4 = !{!"clang version 13.0.0"}
!5 = !{!6, !6, i64 0}
!6 = !{!"int", !7, i64 0}
!7 = !{!"omnipotent char", !8, i64 0}
!8 = !{!"Simple C/C++ TBAA"}
!9 = !{!7, !7, i64 0}
!10 = distinct !{!10, !11}
!11 = !{!"llvm.loop.mustprogress"}
!12 = distinct !{!12, !11}
